; Function Attrs: nounwind uwtable
define internal fastcc void @dissect_bf_vector_type_value(ptr noundef %0) unnamed_addr #0 {
  %2 = alloca i32, align 4
  %3 = load i32, ptr @hf_nfapi_bf_vector_subband_index, align 4
  %4 = tail call ptr @ptvcursor_add(ptr noundef %0, i32 noundef %3, i32 noundef 1, i32 noundef 0) #7
  %5 = load i32, ptr @hf_nfapi_bf_vector_num_antennas, align 4
  %6 = call ptr @ptvcursor_add_ret_uint(ptr noundef %0, i32 noundef %5, i32 noundef 1, i32 noundef 0, ptr noundef nonnull %2) #7
  %7 = load i32, ptr @ett_nfapi_bf_vector_antennas, align 4
  %8 = load i32, ptr %2, align 4
  %.not.i = icmp eq i32 %8, 0
  br i1 %.not.i, label %dissect_array_value.exit, label %9

9:                                                ; preds = %1
  %10 = call ptr (ptr, i32, i32, ptr, ...) @ptvcursor_add_text_with_subtree(ptr noundef %0, i32 noundef -1, i32 noundef %7, ptr noundef nonnull @.str.1839, ptr noundef nonnull @.str.2055) #7
  br label %11

11:                                               ; preds = %11, %9
  %12 = phi i32 [ 0, %9 ], [ %17, %11 ]
  %.016.i = phi i16 [ 0, %9 ], [ %16, %11 ]
  %13 = call ptr (ptr, i32, i32, ptr, ...) @ptvcursor_add_text_with_subtree(ptr noundef %0, i32 noundef -1, i32 noundef %7, ptr noundef nonnull @.str.1840, i32 noundef %12) #7
  %14 = load i32, ptr @hf_nfapi_bf_vector_bf_value, align 4
  %15 = call ptr @ptvcursor_add(ptr noundef %0, i32 noundef %14, i32 noundef 2, i32 noundef 0) #7
  call void @ptvcursor_pop_subtree(ptr noundef %0) #7
  %16 = add i16 %.016.i, 1
  %17 = zext i16 %16 to i32
  %18 = icmp ugt i32 %8, %17
  br i1 %18, label %11, label %19, !llvm.loop !4

19:                                               ; preds = %11
  call void @ptvcursor_pop_subtree(ptr noundef %0) #7
  br label %dissect_array_value.exit

dissect_array_value.exit:                         ; preds = %1, %19
  ret void
}